target datalayout = "e-m:e-p270:32:32-p271:32:32-p272:64:64-i64:64-i128:128-f80:128-n8:16:32:64-S128"
target triple = "x86_64-pc-linux-gnu"

%class.ABstats = type { [8 x %"class.std::__cxx11::basic_string"], %struct.ABtracker, %struct.ABtracker, [2 x %struct.ABtracker], [8 x %struct.ABtracker] }
%"class.std::__cxx11::basic_string" = type { %"struct.std::__cxx11::basic_string<char>::_Alloc_hider", i64, %union.anon }
%"struct.std::__cxx11::basic_string<char>::_Alloc_hider" = type { ptr }
%union.anon = type { i64, [8 x i8] }
%struct.ABtracker = type { [49 x i32], i32, i32, i32, i32 }

; Function Attrs: mustprogress nounwind uwtable
define void @_ZN7ABstats7IncrPosE11ABCountTypebi(ptr noundef nonnull align 8 dereferenceable(2800) %0, i32 noundef %1, i1 noundef zeroext %2, i32 noundef %3) #5 align 2 {
  %5 = alloca ptr, align 8
  %6 = alloca i32, align 4
  %7 = alloca i8, align 1
  %8 = alloca i32, align 4
  %9 = alloca i32, align 4
  store ptr %0, ptr %5, align 8
  store i32 %1, ptr %6, align 4
  %10 = zext i1 %2 to i8
  store i8 %10, ptr %7, align 1
  store i32 %3, ptr %8, align 4
  %11 = load ptr, ptr %5, align 8
  %12 = load i32, ptr %6, align 4
  %13 = icmp slt i32 %12, 0
  br i1 %13, label %17, label %14

14:                                               ; preds = %4
  %15 = load i32, ptr %6, align 4
  %16 = icmp sge i32 %15, 8
  br i1 %16, label %17, label %18

17:                                               ; preds = %14, %4
  br label %102

18:                                               ; preds = %14
  %19 = getelementptr inbounds nuw %class.ABstats, ptr %11, i32 0, i32 4
  %20 = load i32, ptr %6, align 4
  %21 = zext i32 %20 to i64
  %22 = getelementptr inbounds [8 x %struct.ABtracker], ptr %19, i64 0, i64 %21
  %23 = getelementptr inbounds nuw %struct.ABtracker, ptr %22, i32 0, i32 0
  %24 = load i32, ptr %8, align 4
  %25 = sext i32 %24 to i64
  %26 = getelementptr inbounds [49 x i32], ptr %23, i64 0, i64 %25
  %27 = load i32, ptr %26, align 4
  %28 = add nsw i32 %27, 1
  store i32 %28, ptr %26, align 4
  %29 = getelementptr inbounds nuw %class.ABstats, ptr %11, i32 0, i32 4
  %30 = load i32, ptr %6, align 4
  %31 = zext i32 %30 to i64
  %32 = getelementptr inbounds [8 x %struct.ABtracker], ptr %29, i64 0, i64 %31
  %33 = getelementptr inbounds nuw %struct.ABtracker, ptr %32, i32 0, i32 1
  %34 = load i32, ptr %33, align 4
  %35 = add nsw i32 %34, 1
  store i32 %35, ptr %33, align 4
  %36 = load i32, ptr %8, align 4
  %37 = getelementptr inbounds nuw %class.ABstats, ptr %11, i32 0, i32 4
  %38 = load i32, ptr %6, align 4
  %39 = zext i32 %38 to i64
  %40 = getelementptr inbounds [8 x %struct.ABtracker], ptr %37, i64 0, i64 %39
  %41 = getelementptr inbounds nuw %struct.ABtracker, ptr %40, i32 0, i32 2
  %42 = load i32, ptr %41, align 4
  %43 = add nsw i32 %42, %36
  store i32 %43, ptr %41, align 4
  %44 = getelementptr inbounds nuw %class.ABstats, ptr %11, i32 0, i32 4
  %45 = load i32, ptr %6, align 4
  %46 = zext i32 %45 to i64
  %47 = getelementptr inbounds [8 x %struct.ABtracker], ptr %44, i64 0, i64 %46
  %48 = getelementptr inbounds nuw %struct.ABtracker, ptr %47, i32 0, i32 3
  %49 = load i32, ptr %48, align 4
  %50 = add nsw i32 %49, 1
  store i32 %50, ptr %48, align 4
  %51 = load i32, ptr %8, align 4
  %52 = getelementptr inbounds nuw %class.ABstats, ptr %11, i32 0, i32 4
  %53 = load i32, ptr %6, align 4
  %54 = zext i32 %53 to i64
  %55 = getelementptr inbounds [8 x %struct.ABtracker], ptr %52, i64 0, i64 %54
  %56 = getelementptr inbounds nuw %struct.ABtracker, ptr %55, i32 0, i32 4
  %57 = load i32, ptr %56, align 4
  %58 = add nsw i32 %57, %51
  store i32 %58, ptr %56, align 4
  %59 = load i8, ptr %7, align 1
  %60 = trunc i8 %59 to i1
  %61 = select i1 %60, i32 1, i32 0
  store i32 %61, ptr %9, align 4
  %62 = getelementptr inbounds nuw %class.ABstats, ptr %11, i32 0, i32 3
  %63 = load i32, ptr %9, align 4
  %64 = sext i32 %63 to i64
  %65 = getelementptr inbounds [2 x %struct.ABtracker], ptr %62, i64 0, i64 %64
  %66 = getelementptr inbounds nuw %struct.ABtracker, ptr %65, i32 0, i32 0
  %67 = load i32, ptr %8, align 4
  %68 = sext i32 %67 to i64
  %69 = getelementptr inbounds [49 x i32], ptr %66, i64 0, i64 %68
  %70 = load i32, ptr %69, align 4
  %71 = add nsw i32 %70, 1
  store i32 %71, ptr %69, align 4
  %72 = getelementptr inbounds nuw %class.ABstats, ptr %11, i32 0, i32 3
  %73 = load i32, ptr %9, align 4
  %74 = sext i32 %73 to i64
  %75 = getelementptr inbounds [2 x %struct.ABtracker], ptr %72, i64 0, i64 %74
  %76 = getelementptr inbounds nuw %struct.ABtracker, ptr %75, i32 0, i32 1
  %77 = load i32, ptr %76, align 4
  %78 = add nsw i32 %77, 1
  store i32 %78, ptr %76, align 4
  %79 = load i32, ptr %8, align 4
  %80 = getelementptr inbounds nuw %class.ABstats, ptr %11, i32 0, i32 3
  %81 = load i32, ptr %9, align 4
  %82 = sext i32 %81 to i64
  %83 = getelementptr inbounds [2 x %struct.ABtracker], ptr %80, i64 0, i64 %82
  %84 = getelementptr inbounds nuw %struct.ABtracker, ptr %83, i32 0, i32 2
  %85 = load i32, ptr %84, align 4
  %86 = add nsw i32 %85, %79
  store i32 %86, ptr %84, align 4
  %87 = getelementptr inbounds nuw %class.ABstats, ptr %11, i32 0, i32 3
  %88 = load i32, ptr %9, align 4
  %89 = sext i32 %88 to i64
  %90 = getelementptr inbounds [2 x %struct.ABtracker], ptr %87, i64 0, i64 %89
  %91 = getelementptr inbounds nuw %struct.ABtracker, ptr %90, i32 0, i32 3
  %92 = load i32, ptr %91, align 4
  %93 = add nsw i32 %92, 1
  store i32 %93, ptr %91, align 4
  %94 = load i32, ptr %8, align 4
  %95 = getelementptr inbounds nuw %class.ABstats, ptr %11, i32 0, i32 3
  %96 = load i32, ptr %9, align 4
  %97 = sext i32 %96 to i64
  %98 = getelementptr inbounds [2 x %struct.ABtracker], ptr %95, i64 0, i64 %97
  %99 = getelementptr inbounds nuw %struct.ABtracker, ptr %98, i32 0, i32 4
  %100 = load i32, ptr %99, align 4
  %101 = add nsw i32 %100, %94
  store i32 %101, ptr %99, align 4
  br label %102

102:                                              ; preds = %18, %17
  ret void
}