; Function Attrs: mustprogress nofree norecurse nosync nounwind willreturn memory(argmem: readwrite) uwtable
define void @_ZN7ABstats7IncrPosE11ABCountTypebi(ptr nocapture noundef nonnull align 8 dereferenceable(2800) %0, i32 noundef %1, i1 noundef zeroext %2, i32 noundef %3) local_unnamed_addr #6 align 2 {
  %or.cond = icmp ugt i32 %1, 7
  br i1 %or.cond, label %43, label %5

5:                                                ; preds = %4
  %6 = getelementptr inbounds nuw i8, ptr %0, i64 1104
  %7 = zext nneg i32 %1 to i64
  %8 = getelementptr inbounds [8 x %struct.ABtracker], ptr %6, i64 0, i64 %7
  %9 = sext i32 %3 to i64
  %10 = getelementptr inbounds [49 x i32], ptr %8, i64 0, i64 %9
  %11 = load i32, ptr %10, align 4
  %12 = add nsw i32 %11, 1
  store i32 %12, ptr %10, align 4
  %13 = getelementptr inbounds nuw i8, ptr %8, i64 196
  %14 = load i32, ptr %13, align 4
  %15 = add nsw i32 %14, 1
  store i32 %15, ptr %13, align 4
  %16 = getelementptr inbounds nuw i8, ptr %8, i64 200
  %17 = load i32, ptr %16, align 4
  %18 = add nsw i32 %17, %3
  store i32 %18, ptr %16, align 4
  %19 = getelementptr inbounds nuw i8, ptr %8, i64 204
  %20 = load i32, ptr %19, align 4
  %21 = add nsw i32 %20, 1
  store i32 %21, ptr %19, align 4
  %22 = getelementptr inbounds nuw i8, ptr %8, i64 208
  %23 = load i32, ptr %22, align 4
  %24 = add nsw i32 %23, %3
  store i32 %24, ptr %22, align 4
  %25 = getelementptr inbounds nuw i8, ptr %0, i64 680
  %26 = zext i1 %2 to i64
  %27 = getelementptr inbounds [2 x %struct.ABtracker], ptr %25, i64 0, i64 %26
  %28 = getelementptr inbounds [49 x i32], ptr %27, i64 0, i64 %9
  %29 = load i32, ptr %28, align 4
  %30 = add nsw i32 %29, 1
  store i32 %30, ptr %28, align 4
  %31 = getelementptr inbounds nuw i8, ptr %27, i64 196
  %32 = load i32, ptr %31, align 4
  %33 = add nsw i32 %32, 1
  store i32 %33, ptr %31, align 4
  %34 = getelementptr inbounds nuw i8, ptr %27, i64 200
  %35 = load i32, ptr %34, align 4
  %36 = add nsw i32 %35, %3
  store i32 %36, ptr %34, align 4
  %37 = getelementptr inbounds nuw i8, ptr %27, i64 204
  %38 = load i32, ptr %37, align 4
  %39 = add nsw i32 %38, 1
  store i32 %39, ptr %37, align 4
  %40 = getelementptr inbounds nuw i8, ptr %27, i64 208
  %41 = load i32, ptr %40, align 4
  %42 = add nsw i32 %41, %3
  store i32 %42, ptr %40, align 4
  br label %43

43:                                               ; preds = %4, %5
  ret void
}